; Function Attrs: mustprogress uwtable
define internal void @_ZN12_GLOBAL__N_114PrintAttrsPass4helpEv(ptr nonnull readnone align 8 captures(none) %0) unnamed_addr #5 align 2 {
  tail call void (ptr, ...) @_ZN5Yosys3logEPKcz(ptr noundef nonnull @.str.4)
  tail call void (ptr, ...) @_ZN5Yosys3logEPKcz(ptr noundef nonnull @.str.5)
  tail call void (ptr, ...) @_ZN5Yosys3logEPKcz(ptr noundef nonnull @.str.4)
  tail call void (ptr, ...) @_ZN5Yosys3logEPKcz(ptr noundef nonnull @.str.6)
  tail call void (ptr, ...) @_ZN5Yosys3logEPKcz(ptr noundef nonnull @.str.4)
  tail call void (ptr, ...) @_ZN5Yosys3logEPKcz(ptr noundef nonnull @.str.4)
  ret void
}